Certificate:
    Data:
        Version: 3 (0x2)
        Serial Number: 2 (0x2)
    Signature Algorithm: sha256WithRSAEncryption
        Issuer: O=Test Org, CN=Test Org rauc CA Development
        Validity
            Not Before: Jan  1 00:00:00 1970 GMT
            Not After : Dec 31 23:59:59 9999 GMT
        Subject: O=Test Org, CN=Test Org Development-1
        Subject Public Key Info:
            Public Key Algorithm: rsaEncryption
                Public-Key: (2048 bit)
                Modulus:
                    00:e5:c5:c1:28:11:95:42:ef:d9:8d:98:ce:59:8e:
                    13:03:61:08:f6:0c:f6:6b:f7:ad:7b:e0:86:ce:cf:
                    16:91:37:c1:b1:a4:d8:bf:72:a9:40:4d:fe:27:79:
                    67:34:04:15:24:19:98:88:26:71:67:ff:a1:4e:b1:
                    3c:31:f7:2d:33:80:7d:a6:6b:a7:8c:7a:c1:c5:d9:
                    ff:93:b9:3b:ff:ad:17:93:72:71:8b:f8:04:0c:7f:
                    09:c3:b0:4c:3e:c7:2f:16:66:e0:62:3f:b2:a9:ab:
                    5f:df:0d:81:31:67:c2:a0:9e:a4:e9:3e:60:30:a3:
                    95:19:d1:17:34:9d:81:e7:a5:6b:8d:7e:68:0b:1f:
                    ed:0f:dd:25:1e:f1:c8:86:83:07:f0:27:45:1c:ad:
                    5e:4a:f7:05:aa:10:cf:d0:a1:a2:7b:1b:8f:27:9a:
                    57:d7:8b:14:6d:8e:6e:c9:3e:9a:e5:82:47:f3:92:
                    cb:08:79:0f:da:df:ee:44:d7:f6:60:3f:1d:f2:7b:
                    24:37:33:57:df:1b:08:86:4a:fb:53:3b:be:84:1c:
                    3c:32:f9:44:7d:72:47:aa:2a:2f:7f:91:24:09:4c:
                    42:ef:70:4d:9b:3e:42:c7:5e:49:c3:45:98:b1:55:
                    26:0b:78:67:24:9c:71:02:07:26:45:78:92:e5:84:
                    77:f7
                Exponent: 65537 (0x10001)
        X509v3 extensions:
            X509v3 Subject Key Identifier: 
                23:39:B4:A0:F2:70:E0:D9:E0:93:22:6F:F7:D5:1B:55:64:CD:0B:35
            X509v3 Authority Key Identifier: 
                keyid:0C:01:80:61:C1:4F:D9:55:AA:B8:D9:DB:F4:93:79:B5:9C:99:D9:3D
                DirName:/O=Test Org/CN=Test Org rauc CA Development
                serial:01

            X509v3 Basic Constraints: 
                CA:FALSE
    Signature Algorithm: sha256WithRSAEncryption
         3b:b3:9f:f2:eb:04:6e:0d:58:ff:43:07:10:7d:04:28:01:60:
         69:36:42:ce:36:c0:b6:84:4b:65:df:f0:b2:bb:1c:fa:2b:41:
         b0:b1:cf:cb:41:4a:b1:be:07:48:f6:4a:64:53:6f:d6:99:c7:
         2a:11:1c:da:1d:28:94:fd:f0:ce:58:f7:84:3f:07:3d:42:8c:
         57:3b:61:fb:84:0d:51:8b:03:bf:80:0e:21:ee:08:8d:81:1a:
         86:89:1d:04:81:cc:69:17:14:4e:cd:b2:03:e1:5f:71:d6:2c:
         d1:94:0c:b1:d6:ac:8a:f2:9a:30:00:2a:72:72:4f:fe:ca:ce:
         eb:ad:82:44:59:90:23:df:51:24:74:d0:a2:53:50:0f:bc:17:
         eb:cb:1f:a1:d2:34:2c:7c:e9:0c:14:6c:b1:4f:18:91:55:dc:
         20:ee:7b:57:5d:f1:2b:07:58:ab:33:63:c5:f0:35:be:68:08:
         9f:ec:a6:73:2d:e8:f7:9f:a8:31:40:bf:14:7d:e4:e5:a6:aa:
         fa:05:b9:9d:f1:2e:e7:86:6d:71:96:e2:d9:f0:88:63:32:73:
         de:af:a0:ec:83:c9:b0:4c:ef:41:63:35:a7:71:ec:81:e9:7d:
         b3:b0:81:40:95:1f:1f:28:dc:b5:b9:71:aa:92:0e:33:ce:ed:
         20:00:0a:2c
-----BEGIN CERTIFICATE-----
MIIDfzCCAmegAwIBAgIBAjANBgkqhkiG9w0BAQsFADA6MREwDwYDVQQKDAhUZXN0
IE9yZzElMCMGA1UEAwwcVGVzdCBPcmcgcmF1YyBDQSBEZXZlbG9wbWVudDAiGA8x
OTcwMDEwMTAwMDAwMFoYDzk5OTkxMjMxMjM1OTU5WjA0MREwDwYDVQQKDAhUZXN0
IE9yZzEfMB0GA1UEAwwWVGVzdCBPcmcgRGV2ZWxvcG1lbnQtMTCCASIwDQYJKoZI
hvcNAQEBBQADggEPADCCAQoCggEBAOXFwSgRlULv2Y2YzlmOEwNhCPYM9mv3rXvg
hs7PFpE3wbGk2L9yqUBN/id5ZzQEFSQZmIgmcWf/oU6xPDH3LTOAfaZrp4x6wcXZ
/5O5O/+tF5NycYv4BAx/CcOwTD7HLxZm4GI/sqmrX98NgTFnwqCepOk+YDCjlRnR
FzSdgeela41+aAsf7Q/dJR7xyIaDB/AnRRytXkr3BaoQz9ChonsbjyeaV9eLFG2O
bsk+muWCR/OSywh5D9rf7kTX9mA/HfJ7JDczV98bCIZK+1M7voQcPDL5RH1yR6oq
L3+RJAlMQu9wTZs+QsdeScNFmLFVJgt4ZySccQIHJkV4kuWEd/cCAwEAAaOBkTCB
jjAdBgNVHQ4EFgQUIzm0oPJw4NngkyJv99UbVWTNCzUwYgYDVR0jBFswWYAUDAGA
YcFP2VWquNnb9JN5tZyZ2T2hPqQ8MDoxETAPBgNVBAoMCFRlc3QgT3JnMSUwIwYD
VQQDDBxUZXN0IE9yZyByYXVjIENBIERldmVsb3BtZW50ggEBMAkGA1UdEwQCMAAw
DQYJKoZIhvcNAQELBQADggEBADuzn/LrBG4NWP9DBxB9BCgBYGk2Qs42wLaES2Xf
8LK7HPorQbCxz8tBSrG+B0j2SmRTb9aZxyoRHNodKJT98M5Y94Q/Bz1CjFc7YfuE
DVGLA7+ADiHuCI2BGoaJHQSBzGkXFE7NsgPhX3HWLNGUDLHWrIrymjAAKnJyT/7K
zuutgkRZkCPfUSR00KJTUA+8F+vLH6HSNCx86QwUbLFPGJFV3CDue1dd8SsHWKsz
Y8XwNb5oCJ/spnMt6PefqDFAvxR95OWmqvoFuZ3xLueGbXGW4tnwiGMyc96voOyD
ybBM70FjNadx7IHpfbOwgUCVHx8o3LW5caqSDjPO7SAACiw=
-----END CERTIFICATE-----
